; Function Attrs: mustprogress nounwind uwtable
define internal fastcc void @_ZNSt8_Rb_treeIN12_GLOBAL__N_18CallInfoIN4llvm11GlobalValueEEESt4pairIKS4_NS2_13ConstantRangeEESt10_Select1stIS8_ENS4_4LessESaIS8_EE8_M_eraseEPSt13_Rb_tree_nodeIS8_E(ptr noundef %0) unnamed_addr #0 align 2 {
  %.not1 = icmp eq ptr %0, null
  br i1 %.not1, label %._crit_edge, label %.lr.ph

.lr.ph:                                           ; preds = %1, %_ZNSt8_Rb_treeIN12_GLOBAL__N_18CallInfoIN4llvm11GlobalValueEEESt4pairIKS4_NS2_13ConstantRangeEESt10_Select1stIS8_ENS4_4LessESaIS8_EE12_M_drop_nodeEPSt13_Rb_tree_nodeIS8_E.exit
  %.02 = phi ptr [ %.0.val6, %_ZNSt8_Rb_treeIN12_GLOBAL__N_18CallInfoIN4llvm11GlobalValueEEESt4pairIKS4_NS2_13ConstantRangeEESt10_Select1stIS8_ENS4_4LessESaIS8_EE12_M_drop_nodeEPSt13_Rb_tree_nodeIS8_E.exit ], [ %0, %1 ]
  %2 = getelementptr i8, ptr %.02, i64 24
  %.0.val = load ptr, ptr %2, align 8
  tail call fastcc void @_ZNSt8_Rb_treeIN12_GLOBAL__N_18CallInfoIN4llvm11GlobalValueEEESt4pairIKS4_NS2_13ConstantRangeEESt10_Select1stIS8_ENS4_4LessESaIS8_EE8_M_eraseEPSt13_Rb_tree_nodeIS8_E(ptr noundef %.0.val)
  %3 = getelementptr i8, ptr %.02, i64 16
  %.0.val6 = load ptr, ptr %3, align 8
  %4 = getelementptr inbounds nuw i8, ptr %.02, i64 48
  %5 = getelementptr inbounds nuw i8, ptr %.02, i64 72
  %6 = load i32, ptr %5, align 8
  %7 = icmp ugt i32 %6, 64
  br i1 %7, label %8, label %_ZN4llvm5APIntD2Ev.exit.i.i.i.i.i.i

8:                                                ; preds = %.lr.ph
  %9 = getelementptr inbounds nuw i8, ptr %.02, i64 64
  %10 = load ptr, ptr %9, align 8
  %11 = icmp eq ptr %10, null
  br i1 %11, label %_ZN4llvm5APIntD2Ev.exit.i.i.i.i.i.i, label %12

12:                                               ; preds = %8
  tail call void @_ZdaPv(ptr noundef nonnull %10) #26
  br label %_ZN4llvm5APIntD2Ev.exit.i.i.i.i.i.i

_ZN4llvm5APIntD2Ev.exit.i.i.i.i.i.i:              ; preds = %12, %8, %.lr.ph
  %13 = getelementptr inbounds nuw i8, ptr %.02, i64 56
  %14 = load i32, ptr %13, align 8
  %15 = icmp ugt i32 %14, 64
  br i1 %15, label %16, label %_ZNSt8_Rb_treeIN12_GLOBAL__N_18CallInfoIN4llvm11GlobalValueEEESt4pairIKS4_NS2_13ConstantRangeEESt10_Select1stIS8_ENS4_4LessESaIS8_EE12_M_drop_nodeEPSt13_Rb_tree_nodeIS8_E.exit

16:                                               ; preds = %_ZN4llvm5APIntD2Ev.exit.i.i.i.i.i.i
  %17 = load ptr, ptr %4, align 8
  %18 = icmp eq ptr %17, null
  br i1 %18, label %_ZNSt8_Rb_treeIN12_GLOBAL__N_18CallInfoIN4llvm11GlobalValueEEESt4pairIKS4_NS2_13ConstantRangeEESt10_Select1stIS8_ENS4_4LessESaIS8_EE12_M_drop_nodeEPSt13_Rb_tree_nodeIS8_E.exit, label %19

19:                                               ; preds = %16
  tail call void @_ZdaPv(ptr noundef nonnull %17) #26
  br label %_ZNSt8_Rb_treeIN12_GLOBAL__N_18CallInfoIN4llvm11GlobalValueEEESt4pairIKS4_NS2_13ConstantRangeEESt10_Select1stIS8_ENS4_4LessESaIS8_EE12_M_drop_nodeEPSt13_Rb_tree_nodeIS8_E.exit

_ZNSt8_Rb_treeIN12_GLOBAL__N_18CallInfoIN4llvm11GlobalValueEEESt4pairIKS4_NS2_13ConstantRangeEESt10_Select1stIS8_ENS4_4LessESaIS8_EE12_M_drop_nodeEPSt13_Rb_tree_nodeIS8_E.exit: ; preds = %_ZN4llvm5APIntD2Ev.exit.i.i.i.i.i.i, %16, %19
  tail call void @_ZdlPvm(ptr noundef nonnull %.02, i64 noundef 80) #26
  %.not = icmp eq ptr %.0.val6, null
  br i1 %.not, label %._crit_edge, label %.lr.ph, !llvm.loop !122

._crit_edge:                                      ; preds = %_ZNSt8_Rb_treeIN12_GLOBAL__N_18CallInfoIN4llvm11GlobalValueEEESt4pairIKS4_NS2_13ConstantRangeEESt10_Select1stIS8_ENS4_4LessESaIS8_EE12_M_drop_nodeEPSt13_Rb_tree_nodeIS8_E.exit, %1
  ret void
}